; Function Attrs: nounwind uwtable
define dso_local void @PyErr_FormatUnraisable(ptr noundef %0, ...) local_unnamed_addr #0 {
  %2 = alloca [1 x %struct.__va_list_tag], align 16
  call void @llvm.lifetime.start.p0(i64 24, ptr nonnull %2) #17
  call void @llvm.va_start.p0(ptr nonnull %2)
  call fastcc void @format_unraisable_v(ptr noundef %0, ptr noundef %2, ptr noundef null)
  call void @llvm.va_end.p0(ptr nonnull %2)
  call void @llvm.lifetime.end.p0(i64 24, ptr nonnull %2) #17
  ret void
}